; Function Attrs: nounwind uwtable
define ptr @l_Array_foldlMUnsafe_fold___at___private_Lean_Elab_Tactic_Try_0__Lean_Elab_Tactic_Try_filterSorry___spec__1(ptr noundef readonly captures(none) %0, i64 noundef %1, i64 noundef %2, ptr noundef %3) local_unnamed_addr #0 {
  %.not41 = icmp eq i64 %1, %2
  br i1 %.not41, label %._crit_edge, label %.lr.ph

.lr.ph:                                           ; preds = %4
  %5 = getelementptr inbounds nuw i8, ptr %0, i64 24
  br label %6

6:                                                ; preds = %.lr.ph, %lean_dec.exit
  %.02143 = phi i64 [ %1, %.lr.ph ], [ %.2, %lean_dec.exit ]
  %.02342 = phi ptr [ %3, %.lr.ph ], [ %.225, %lean_dec.exit ]
  %7 = getelementptr inbounds nuw [0 x ptr], ptr %5, i64 0, i64 %.02143
  %8 = load ptr, ptr %7, align 8, !tbaa !4
  %9 = ptrtoint ptr %8 to i64
  %10 = and i64 %9, 1
  %.not.i26 = icmp eq i64 %10, 0
  br i1 %.not.i26, label %11, label %lean_inc.exit.thread

11:                                               ; preds = %6
  %.val.i.i = load i32, ptr %8, align 4, !tbaa !8
  %12 = icmp sgt i32 %.val.i.i, 0
  br i1 %12, label %13, label %15, !prof !11

13:                                               ; preds = %11
  %14 = add nuw i32 %.val.i.i, 1
  store i32 %14, ptr %8, align 4, !tbaa !8
  br label %18

15:                                               ; preds = %11
  %.not.i.i = icmp eq i32 %.val.i.i, 0
  br i1 %.not.i.i, label %.thread30, label %17

.thread30:                                        ; preds = %15
  %16 = load ptr, ptr @l___private_Lean_Elab_Tactic_Try_0__Lean_Elab_Tactic_Try_isSorry___closed__2, align 8, !tbaa !4
  br label %lean_inc.exit

17:                                               ; preds = %15
  tail call void @lean_inc_ref_cold(ptr noundef nonnull %8) #5
  %.val.i.pr = load i32, ptr %8, align 4, !tbaa !8
  br label %18

18:                                               ; preds = %13, %17
  %.val.i = phi i32 [ %14, %13 ], [ %.val.i.pr, %17 ]
  %19 = load ptr, ptr @l___private_Lean_Elab_Tactic_Try_0__Lean_Elab_Tactic_Try_isSorry___closed__2, align 8, !tbaa !4
  %20 = icmp sgt i32 %.val.i, 0
  br i1 %20, label %21, label %23, !prof !12

21:                                               ; preds = %18
  %22 = add nuw i32 %.val.i, 1
  store i32 %22, ptr %8, align 4, !tbaa !8
  br label %lean_inc.exit

23:                                               ; preds = %18
  %.not.i27 = icmp eq i32 %.val.i, 0
  br i1 %.not.i27, label %lean_inc.exit, label %24

24:                                               ; preds = %23
  tail call void @lean_inc_ref_cold(ptr noundef nonnull %8) #5
  br label %lean_inc.exit

lean_inc.exit:                                    ; preds = %24, %23, %21, %.thread30
  %25 = phi ptr [ %19, %21 ], [ %19, %23 ], [ %19, %24 ], [ %16, %.thread30 ]
  %26 = tail call zeroext i8 @l_Lean_Syntax_isOfKind(ptr noundef nonnull %8, ptr noundef %25) #5
  %27 = add i64 %.02143, 1
  %28 = icmp eq i8 %26, 0
  br i1 %28, label %33, label %36

lean_inc.exit.thread:                             ; preds = %6
  %29 = load ptr, ptr @l___private_Lean_Elab_Tactic_Try_0__Lean_Elab_Tactic_Try_isSorry___closed__2, align 8, !tbaa !4
  %30 = tail call zeroext i8 @l_Lean_Syntax_isOfKind(ptr noundef %8, ptr noundef %29) #5
  %31 = add i64 %.02143, 1
  %32 = icmp eq i8 %30, 0
  br i1 %32, label %33, label %lean_dec.exit

33:                                               ; preds = %lean_inc.exit.thread, %lean_inc.exit
  %34 = phi i64 [ %31, %lean_inc.exit.thread ], [ %27, %lean_inc.exit ]
  %35 = tail call ptr @lean_array_push(ptr noundef %.02342, ptr noundef %8) #5
  br label %lean_dec.exit

36:                                               ; preds = %lean_inc.exit
  %37 = load i32, ptr %8, align 4, !tbaa !8
  %38 = icmp sgt i32 %37, 1
  br i1 %38, label %39, label %41, !prof !11

39:                                               ; preds = %36
  %40 = add nsw i32 %37, -1
  store i32 %40, ptr %8, align 4, !tbaa !8
  br label %lean_dec.exit

41:                                               ; preds = %36
  %.not.i = icmp eq i32 %37, 0
  br i1 %.not.i, label %lean_dec.exit, label %42

42:                                               ; preds = %41
  tail call void @lean_dec_ref_cold(ptr noundef nonnull %8) #5
  br label %lean_dec.exit

lean_dec.exit:                                    ; preds = %lean_inc.exit.thread, %39, %41, %42, %33
  %.225 = phi ptr [ %35, %33 ], [ %.02342, %42 ], [ %.02342, %41 ], [ %.02342, %39 ], [ %.02342, %lean_inc.exit.thread ]
  %.2 = phi i64 [ %34, %33 ], [ %27, %42 ], [ %27, %41 ], [ %27, %39 ], [ %31, %lean_inc.exit.thread ]
  %.not = icmp eq i64 %.2, %2
  br i1 %.not, label %._crit_edge, label %6

._crit_edge:                                      ; preds = %lean_dec.exit, %4
  %.023.lcssa = phi ptr [ %3, %4 ], [ %.225, %lean_dec.exit ]
  ret ptr %.023.lcssa
}